; Function Attrs: mustprogress uwtable
define void @_ZN6colvar6gspath11apply_forceERK11colvarvalue(ptr nocapture noundef nonnull readonly align 8 dereferenceable(2704) %0, ptr noundef nonnull align 8 dereferenceable(168) %1) unnamed_addr #2 align 2 {
  %3 = getelementptr inbounds i8, ptr %1, i64 8
  %4 = getelementptr inbounds i8, ptr %0, i64 1712
  %5 = getelementptr inbounds i8, ptr %0, i64 2088
  %6 = load i64, ptr %5, align 8
  %7 = load ptr, ptr %4, align 8
  %8 = getelementptr inbounds ptr, ptr %7, i64 %6
  %9 = load ptr, ptr %8, align 8
  tail call void @_ZN12colvarmodule10atom_group18apply_colvar_forceERKd(ptr noundef nonnull align 8 dereferenceable(1440) %9, ptr noundef nonnull align 8 dereferenceable(8) %3)
  %10 = getelementptr inbounds i8, ptr %0, i64 2096
  %11 = load i64, ptr %10, align 8
  %12 = load ptr, ptr %4, align 8
  %13 = getelementptr inbounds ptr, ptr %12, i64 %11
  %14 = load ptr, ptr %13, align 8
  tail call void @_ZN12colvarmodule10atom_group18apply_colvar_forceERKd(ptr noundef nonnull align 8 dereferenceable(1440) %14, ptr noundef nonnull align 8 dereferenceable(8) %3)
  ret void
}